; Function Attrs: nounwind uwtable
define internal fastcc void @Abc_NtkFromFraig2_rec(ptr noundef %0, ptr noundef captures(none) %1, ptr noundef %2) unnamed_addr #0 {
  %4 = getelementptr i8, ptr %1, i64 28
  %.val23 = load i32, ptr %4, align 4
  %5 = icmp slt i32 %.val23, 2
  br i1 %5, label %common.ret, label %6

6:                                                ; preds = %3
  %.val2.i = load ptr, ptr %1, align 8
  %7 = getelementptr i8, ptr %1, i64 16
  %.val3.i = load i32, ptr %7, align 8
  %8 = getelementptr inbounds nuw i8, ptr %.val2.i, i64 224
  %9 = add nsw i32 %.val3.i, 1
  tail call fastcc void @Vec_IntFillExtra(ptr noundef nonnull %8, i32 noundef %9)
  %10 = getelementptr i8, ptr %.val2.i, i64 232
  %.val.i.i.i = load ptr, ptr %10, align 8
  %11 = sext i32 %.val3.i to i64
  %12 = getelementptr inbounds i32, ptr %.val.i.i.i, i64 %11
  %13 = load i32, ptr %12, align 4
  %.val.i = load ptr, ptr %1, align 8
  %14 = getelementptr inbounds nuw i8, ptr %.val.i, i64 216
  %15 = load i32, ptr %14, align 8
  %.not = icmp eq i32 %13, %15
  br i1 %.not, label %common.ret, label %16

16:                                               ; preds = %6
  %.val29 = load i32, ptr %7, align 8
  %17 = getelementptr inbounds nuw i8, ptr %.val.i, i64 224
  %18 = add nsw i32 %.val29, 1
  tail call fastcc void @Vec_IntFillExtra(ptr noundef nonnull %17, i32 noundef %18)
  %19 = getelementptr i8, ptr %.val.i, i64 232
  %.val.i.i.i30 = load ptr, ptr %19, align 8
  %20 = sext i32 %.val29 to i64
  %21 = getelementptr inbounds i32, ptr %.val.i.i.i30, i64 %20
  store i32 %15, ptr %21, align 4
  %22 = load i32, ptr %7, align 8
  %23 = getelementptr i8, ptr %2, i64 8
  %.val = load ptr, ptr %23, align 8
  %24 = sext i32 %22 to i64
  %25 = getelementptr inbounds ptr, ptr %.val, i64 %24
  %26 = load ptr, ptr %25, align 8
  %.not22 = icmp eq ptr %26, null
  br i1 %.not22, label %41, label %28

common.ret.sink.split:                            ; preds = %28, %41
  %.sink = phi ptr [ %80, %41 ], [ %40, %28 ]
  %27 = getelementptr inbounds nuw i8, ptr %1, i64 64
  store ptr %.sink, ptr %27, align 8
  br label %common.ret

common.ret:                                       ; preds = %common.ret.sink.split, %3, %6
  ret void

28:                                               ; preds = %16
  tail call fastcc void @Abc_NtkFromFraig2_rec(ptr noundef %0, ptr noundef nonnull %26, ptr noundef nonnull %2)
  %29 = getelementptr inbounds nuw i8, ptr %26, i64 64
  %30 = load ptr, ptr %29, align 8
  %31 = getelementptr inbounds nuw i8, ptr %26, i64 20
  %32 = load i32, ptr %31, align 4
  %33 = getelementptr inbounds nuw i8, ptr %1, i64 20
  %34 = load i32, ptr %33, align 4
  %35 = xor i32 %34, %32
  %36 = ptrtoint ptr %30 to i64
  %37 = lshr i32 %35, 7
  %.lobit = and i32 %37, 1
  %38 = zext nneg i32 %.lobit to i64
  %39 = xor i64 %38, %36
  %40 = inttoptr i64 %39 to ptr
  br label %common.ret.sink.split

41:                                               ; preds = %16
  %.val24 = load ptr, ptr %1, align 8
  %42 = getelementptr i8, ptr %1, i64 32
  %.val25 = load ptr, ptr %42, align 8
  %43 = getelementptr i8, ptr %.val24, i64 32
  %.val24.val = load ptr, ptr %43, align 8
  %.val25.val = load i32, ptr %.val25, align 4
  %44 = getelementptr i8, ptr %.val24.val, i64 8
  %.val24.val.val = load ptr, ptr %44, align 8
  %45 = sext i32 %.val25.val to i64
  %46 = getelementptr inbounds ptr, ptr %.val24.val.val, i64 %45
  %47 = load ptr, ptr %46, align 8
  tail call fastcc void @Abc_NtkFromFraig2_rec(ptr noundef %0, ptr noundef %47, ptr noundef nonnull %2)
  %.val26 = load ptr, ptr %1, align 8
  %.val27 = load ptr, ptr %42, align 8
  %48 = getelementptr i8, ptr %.val26, i64 32
  %.val26.val = load ptr, ptr %48, align 8
  %49 = getelementptr i8, ptr %.val27, i64 4
  %.val27.val = load i32, ptr %49, align 4
  %50 = getelementptr i8, ptr %.val26.val, i64 8
  %.val26.val.val = load ptr, ptr %50, align 8
  %51 = sext i32 %.val27.val to i64
  %52 = getelementptr inbounds ptr, ptr %.val26.val.val, i64 %51
  %53 = load ptr, ptr %52, align 8
  tail call fastcc void @Abc_NtkFromFraig2_rec(ptr noundef %0, ptr noundef %53, ptr noundef nonnull %2)
  %54 = getelementptr inbounds nuw i8, ptr %0, i64 256
  %55 = load ptr, ptr %54, align 8
  %.val.i31 = load ptr, ptr %1, align 8
  %.val2.i32 = load ptr, ptr %42, align 8
  %56 = getelementptr i8, ptr %.val.i31, i64 32
  %.val.val.i = load ptr, ptr %56, align 8
  %.val2.val.i = load i32, ptr %.val2.i32, align 4
  %57 = getelementptr i8, ptr %.val.val.i, i64 8
  %.val.val.val.i = load ptr, ptr %57, align 8
  %58 = sext i32 %.val2.val.i to i64
  %59 = getelementptr inbounds ptr, ptr %.val.val.val.i, i64 %58
  %60 = load ptr, ptr %59, align 8
  %61 = getelementptr inbounds nuw i8, ptr %60, i64 64
  %62 = load ptr, ptr %61, align 8
  %63 = getelementptr i8, ptr %1, i64 20
  %.val3.i33 = load i32, ptr %63, align 4
  %64 = ptrtoint ptr %62 to i64
  %65 = lshr i32 %.val3.i33, 10
  %.lobit.i = and i32 %65, 1
  %66 = zext nneg i32 %.lobit.i to i64
  %67 = xor i64 %66, %64
  %68 = inttoptr i64 %67 to ptr
  %69 = getelementptr i8, ptr %.val2.i32, i64 4
  %.val2.val.i37 = load i32, ptr %69, align 4
  %70 = sext i32 %.val2.val.i37 to i64
  %71 = getelementptr inbounds ptr, ptr %.val.val.val.i, i64 %70
  %72 = load ptr, ptr %71, align 8
  %73 = getelementptr inbounds nuw i8, ptr %72, i64 64
  %74 = load ptr, ptr %73, align 8
  %75 = ptrtoint ptr %74 to i64
  %76 = lshr i32 %.val3.i33, 11
  %.lobit.i40 = and i32 %76, 1
  %77 = zext nneg i32 %.lobit.i40 to i64
  %78 = xor i64 %75, %77
  %79 = inttoptr i64 %78 to ptr
  %80 = tail call ptr @Abc_AigAnd(ptr noundef %55, ptr noundef %68, ptr noundef %79) #11
  br label %common.ret.sink.split
}